target datalayout = "e-m:e-p270:32:32-p271:32:32-p272:64:64-i64:64-i128:128-f80:128-n8:16:32:64-S128"
target triple = "x86_64-pc-linux-gnu"

%struct.JSValue = type { %union.JSValueUnion, i64 }
%union.JSValueUnion = type { double }

; Function Attrs: nounwind uwtable
define internal ptr @JS_ToCString(ptr noundef %0, i64 %1, i64 %2) #0 {
  %4 = alloca %struct.JSValue, align 8
  %5 = alloca ptr, align 8
  %6 = getelementptr inbounds { i64, i64 }, ptr %4, i32 0, i32 0
  store i64 %1, ptr %6, align 8
  %7 = getelementptr inbounds { i64, i64 }, ptr %4, i32 0, i32 1
  store i64 %2, ptr %7, align 8
  store ptr %0, ptr %5, align 8
  %8 = load ptr, ptr %5, align 8
  %9 = getelementptr inbounds { i64, i64 }, ptr %4, i32 0, i32 0
  %10 = load i64, ptr %9, align 8
  %11 = getelementptr inbounds { i64, i64 }, ptr %4, i32 0, i32 1
  %12 = load i64, ptr %11, align 8
  %13 = call ptr @JS_ToCStringLen2(ptr noundef %8, ptr noundef null, i64 %10, i64 %12, i32 noundef 0)
  ret ptr %13
}

; Function Attrs: nounwind uwtable
define internal { i64, i64 } @js_std_getenv(ptr noundef %0, i64 %1, i64 %2, i32 noundef %3, ptr noundef %4) #0 {
  %6 = alloca %struct.JSValue, align 8
  %7 = alloca %struct.JSValue, align 8
  %8 = alloca ptr, align 8
  %9 = alloca i32, align 4
  %10 = alloca ptr, align 8
  %11 = alloca ptr, align 8
  %12 = alloca ptr, align 8
  %13 = getelementptr inbounds { i64, i64 }, ptr %7, i32 0, i32 0
  store i64 %1, ptr %13, align 8
  %14 = getelementptr inbounds { i64, i64 }, ptr %7, i32 0, i32 1
  store i64 %2, ptr %14, align 8
  store ptr %0, ptr %8, align 8
  store i32 %3, ptr %9, align 4
  store ptr %4, ptr %10, align 8
  %15 = load ptr, ptr %8, align 8
  %16 = load ptr, ptr %10, align 8
  %17 = getelementptr %struct.JSValue, ptr %16, i64 0
  %18 = getelementptr inbounds { i64, i64 }, ptr %17, i32 0, i32 0
  %19 = load i64, ptr %18, align 8
  %20 = getelementptr inbounds { i64, i64 }, ptr %17, i32 0, i32 1
  %21 = load i64, ptr %20, align 8
  %22 = call ptr @JS_ToCString(ptr noundef %15, i64 %19, i64 %21)
  store ptr %22, ptr %11, align 8
  %23 = load ptr, ptr %11, align 8
  %24 = icmp ne ptr %23, null
  br i1 %24, label %28, label %25

25:                                               ; preds = %5
  %26 = getelementptr inbounds %struct.JSValue, ptr %6, i32 0, i32 0
  store i32 0, ptr %26, align 8
  %27 = getelementptr inbounds %struct.JSValue, ptr %6, i32 0, i32 1
  store i64 6, ptr %27, align 8
  br label %46

28:                                               ; preds = %5
  %29 = load ptr, ptr %11, align 8
  %30 = call ptr @getenv(ptr noundef %29) #12
  store ptr %30, ptr %12, align 8
  %31 = load ptr, ptr %8, align 8
  %32 = load ptr, ptr %11, align 8
  call void @JS_FreeCString(ptr noundef %31, ptr noundef %32)
  %33 = load ptr, ptr %12, align 8
  %34 = icmp ne ptr %33, null
  br i1 %34, label %38, label %35

35:                                               ; preds = %28
  %36 = getelementptr inbounds %struct.JSValue, ptr %6, i32 0, i32 0
  store i32 0, ptr %36, align 8
  %37 = getelementptr inbounds %struct.JSValue, ptr %6, i32 0, i32 1
  store i64 3, ptr %37, align 8
  br label %46

38:                                               ; preds = %28
  %39 = load ptr, ptr %8, align 8
  %40 = load ptr, ptr %12, align 8
  %41 = call { i64, i64 } @JS_NewString(ptr noundef %39, ptr noundef %40)
  %42 = getelementptr inbounds { i64, i64 }, ptr %6, i32 0, i32 0
  %43 = extractvalue { i64, i64 } %41, 0
  store i64 %43, ptr %42, align 8
  %44 = getelementptr inbounds { i64, i64 }, ptr %6, i32 0, i32 1
  %45 = extractvalue { i64, i64 } %41, 1
  store i64 %45, ptr %44, align 8
  br label %46

46:                                               ; preds = %38, %35, %25
  %47 = load { i64, i64 }, ptr %6, align 8
  ret { i64, i64 } %47
}