; Function Attrs: nounwind uwtable
define internal { i64, i64 } @js_std_getenv(ptr noundef %0, i64 %1, i64 %2, i32 %3, ptr nocapture noundef readonly %4) #0 {
  %6 = load i64, ptr %4, align 8
  %7 = getelementptr inbounds i8, ptr %4, i64 8
  %8 = load i64, ptr %7, align 8
  %9 = tail call ptr @JS_ToCStringLen2(ptr noundef %0, ptr noundef null, i64 %6, i64 %8, i32 noundef 0) #29
  %.not = icmp eq ptr %9, null
  br i1 %.not, label %17, label %10

10:                                               ; preds = %5
  %11 = tail call ptr @getenv(ptr noundef nonnull %9) #29
  tail call void @JS_FreeCString(ptr noundef %0, ptr noundef nonnull %9) #29
  %.not13 = icmp eq ptr %11, null
  br i1 %.not13, label %17, label %12

12:                                               ; preds = %10
  %13 = tail call { i64, i64 } @JS_NewString(ptr noundef %0, ptr noundef nonnull %11) #29
  %14 = extractvalue { i64, i64 } %13, 0
  %.sroa.4.0.extract.shift = and i64 %14, -4294967296
  %15 = extractvalue { i64, i64 } %13, 1
  %16 = and i64 %14, 4294967295
  br label %17

17:                                               ; preds = %10, %5, %12
  %.sroa.09.0 = phi i64 [ %16, %12 ], [ 0, %5 ], [ 0, %10 ]
  %.sroa.4.sroa.0.0 = phi i64 [ %.sroa.4.0.extract.shift, %12 ], [ 0, %5 ], [ 0, %10 ]
  %.sroa.4.sroa.2.0 = phi i64 [ %15, %12 ], [ 6, %5 ], [ 3, %10 ]
  %.sroa.09.0.insert.insert = or disjoint i64 %.sroa.4.sroa.0.0, %.sroa.09.0
  %.fca.0.insert = insertvalue { i64, i64 } poison, i64 %.sroa.09.0.insert.insert, 0
  %.fca.1.insert = insertvalue { i64, i64 } %.fca.0.insert, i64 %.sroa.4.sroa.2.0, 1
  ret { i64, i64 } %.fca.1.insert
}